ccollections
defaultdict
p0
(c__builtin__
dict
p1
tp2
Rp3
S'dropout_prob'
p4
(dp5
I20
(lp6
(lp7
F0.534
aF0.54
aa(lp8
F0.666
aF0.628
aassS'learning_rate'
p9
(dp10
I20
(lp11
(lp12
F0.466
aF0.46
aa(lp13
F0.696
aF0.686
aassS'hidden_dim'
p14
(dp15
I5
(lp16
(lp17
F0.534
aF0.54
aa(lp18
F0.64
aF0.62
aassS'embedding_dim'
p19
(dp20
I20
(lp21
(lp22
F0.466
aF0.46
aa(lp23
F0.564
aF0.604
aass.