ccollections
defaultdict
p0
(c__builtin__
dict
p1
tp2
Rp3
S'learning_rate'
p4
(dp5
I20
(lp6
(lp7
F0.508
aF0.488
aa(lp8
F0.534
aF0.54
aassS'window_size'
p9
(dp10
I20
(lp11
(lp12
F0.536
aF0.536
aa(lp13
F0.534
aF0.54
aassS'n_filters'
p14
(dp15
I20
(lp16
(lp17
F0.54
aF0.54
aa(lp18
F0.534
aF0.54
aassS'embedding_dim'
p19
(dp20
I20
(lp21
(lp22
F0.534
aF0.54
aa(lp23
F0.534
aF0.54
aassS'dropout_prob'
p24
(dp25
I20
(lp26
(lp27
F0.534
aF0.54
aa(lp28
F0.534
aF0.54
aass.